; Function Attrs: mustprogress uwtable
define dso_local void @_ZN22cmGlobalNinjaGenerator6IndentERSoi(ptr noundef nonnull align 8 dereferenceable(8) %0, i32 noundef %1) local_unnamed_addr #3 align 2 {
  %3 = icmp sgt i32 %1, 0
  br i1 %3, label %.lr.ph, label %._crit_edge

.lr.ph:                                           ; preds = %2, %.lr.ph
  %.03 = phi i32 [ %6, %.lr.ph ], [ 0, %2 ]
  %4 = load ptr, ptr @_ZN22cmGlobalNinjaGenerator6INDENTE, align 8
  %5 = tail call noundef nonnull align 8 dereferenceable(8) ptr @_ZStlsISt11char_traitsIcEERSt13basic_ostreamIcT_ES5_PKc(ptr noundef nonnull align 8 dereferenceable(8) %0, ptr noundef %4)
  %6 = add nuw nsw i32 %.03, 1
  %exitcond.not = icmp eq i32 %6, %1
  br i1 %exitcond.not, label %._crit_edge, label %.lr.ph, !llvm.loop !5

._crit_edge:                                      ; preds = %.lr.ph, %2
  ret void
}